; Function Attrs: nofree norecurse nosync nounwind memory(readwrite, inaccessiblemem: none) uwtable
define hidden void @IntArgbBmToUshort565RgbXparBgCopy(ptr noundef %0, ptr noundef %1, i32 noundef %2, i32 noundef %3, i32 noundef %4, ptr nocapture noundef readonly %5, ptr nocapture noundef readonly %6, ptr nocapture readnone %7, ptr nocapture readnone %8) #1 {
  %10 = getelementptr inbounds i8, ptr %5, i64 32
  %11 = load i32, ptr %10, align 8
  %12 = getelementptr inbounds i8, ptr %6, i64 32
  %13 = load i32, ptr %12, align 8
  %14 = shl i32 %2, 2
  %15 = sub i32 %11, %14
  %16 = shl i32 %2, 1
  %17 = sub i32 %13, %16
  %18 = sext i32 %15 to i64
  %19 = sext i32 %17 to i64
  br label %20

20:                                               ; preds = %41, %9
  %.027 = phi ptr [ %1, %9 ], [ %45, %41 ]
  %.025 = phi ptr [ %0, %9 ], [ %43, %41 ]
  %.0 = phi i32 [ %3, %9 ], [ %46, %41 ]
  br label %21

21:                                               ; preds = %33, %20
  %.128 = phi ptr [ %.027, %20 ], [ %39, %33 ]
  %.026 = phi i32 [ %2, %20 ], [ %40, %33 ]
  %.1 = phi ptr [ %.025, %20 ], [ %36, %33 ]
  %22 = load i32, ptr %.1, align 4
  %23 = icmp ult i32 %22, 16777216
  br i1 %23, label %33, label %24

24:                                               ; preds = %21
  %25 = lshr i32 %22, 8
  %26 = and i32 %25, 63488
  %27 = lshr i32 %22, 5
  %28 = and i32 %27, 2016
  %29 = or disjoint i32 %26, %28
  %30 = lshr i32 %22, 3
  %31 = and i32 %30, 31
  %32 = or disjoint i32 %29, %31
  br label %33

33:                                               ; preds = %21, %24
  %storemerge.in = phi i32 [ %32, %24 ], [ %4, %21 ]
  %storemerge = trunc i32 %storemerge.in to i16
  store i16 %storemerge, ptr %.128, align 2
  %34 = ptrtoint ptr %.1 to i64
  %35 = add nsw i64 %34, 4
  %36 = inttoptr i64 %35 to ptr
  %37 = ptrtoint ptr %.128 to i64
  %38 = add nsw i64 %37, 2
  %39 = inttoptr i64 %38 to ptr
  %40 = add i32 %.026, -1
  %.not = icmp eq i32 %40, 0
  br i1 %.not, label %41, label %21, !llvm.loop !43

41:                                               ; preds = %33
  %42 = add nsw i64 %35, %18
  %43 = inttoptr i64 %42 to ptr
  %44 = add nsw i64 %38, %19
  %45 = inttoptr i64 %44 to ptr
  %46 = add i32 %.0, -1
  %.not31 = icmp eq i32 %46, 0
  br i1 %.not31, label %47, label %20, !llvm.loop !44

47:                                               ; preds = %41
  ret void
}